target datalayout = "e-m:e-p270:32:32-p271:32:32-p272:64:64-i64:64-i128:128-f80:128-n8:16:32:64-S128"
target triple = "x86_64-pc-linux-gnu"

%struct.sockaddr_in = type { i16, i16, %struct.in_addr, [8 x i8] }
%struct.in_addr = type { i32 }
%struct.sockaddr_in6 = type { i16, i16, i32, %struct.in6_addr, i32 }
%struct.in6_addr = type { %union.anon.23 }
%union.anon.23 = type { [4 x i32] }
%struct.ip_mreq = type { %struct.in_addr, %struct.in_addr }
%struct.ipv6_mreq = type { %struct.in6_addr, i32 }

@stderr = external global ptr, align 8
@.str = private unnamed_addr constant [30 x i8] c"Assertion failed: %s (%s:%d)\0A\00", align 1
@.str.2 = private unnamed_addr constant [110 x i8] c"generated/home/dtcxzyw/WorkSpace/Projects/compilers/llvm-opt-benchmark/bench/libzmq/libzmq/src/udp_engine.cpp\00", align 1
@.str.8 = private unnamed_addr constant [12 x i8] c"iface >= -1\00", align 1

; Function Attrs: mustprogress uwtable
define noundef i32 @_ZN3zmq12udp_engine_t14add_membershipEiPKNS_13udp_address_tE(ptr noundef nonnull align 8 dereferenceable(17880) %0, i32 noundef %1, ptr noundef %2) #0 align 2 {
  %4 = alloca ptr, align 8
  %5 = alloca i32, align 4
  %6 = alloca ptr, align 8
  %7 = alloca ptr, align 8
  %8 = alloca i32, align 4
  %9 = alloca %struct.ip_mreq, align 4
  %10 = alloca %struct.ipv6_mreq, align 4
  %11 = alloca i32, align 4
  store ptr %0, ptr %4, align 8, !tbaa !3
  store i32 %1, ptr %5, align 4, !tbaa !83
  store ptr %2, ptr %6, align 8, !tbaa !91
  call void @llvm.lifetime.start.p0(i64 8, ptr %7) #21
  %12 = load ptr, ptr %6, align 8, !tbaa !91
  %13 = call noundef ptr @_ZNK3zmq13udp_address_t11target_addrEv(ptr noundef nonnull align 8 dereferenceable(104) %12)
  store ptr %13, ptr %7, align 8, !tbaa !94
  call void @llvm.lifetime.start.p0(i64 4, ptr %8) #21
  store i32 0, ptr %8, align 4, !tbaa !83
  %14 = load ptr, ptr %7, align 8, !tbaa !94
  %15 = call noundef i32 @_ZNK3zmq9ip_addr_t6familyEv(ptr noundef nonnull align 4 dereferenceable(28) %14)
  %16 = icmp eq i32 %15, 2
  br i1 %16, label %17, label %27

17:                                               ; preds = %3
  call void @llvm.lifetime.start.p0(i64 8, ptr %9) #21
  %18 = load ptr, ptr %7, align 8, !tbaa !94
  %19 = getelementptr inbounds nuw %struct.sockaddr_in, ptr %18, i32 0, i32 2
  %20 = getelementptr inbounds nuw %struct.ip_mreq, ptr %9, i32 0, i32 0
  call void @llvm.memcpy.p0.p0.i64(ptr align 4 %20, ptr align 4 %19, i64 4, i1 false), !tbaa.struct !104
  %21 = load ptr, ptr %6, align 8, !tbaa !91
  %22 = call noundef ptr @_ZNK3zmq13udp_address_t9bind_addrEv(ptr noundef nonnull align 8 dereferenceable(104) %21)
  %23 = getelementptr inbounds nuw %struct.sockaddr_in, ptr %22, i32 0, i32 2
  %24 = getelementptr inbounds nuw %struct.ip_mreq, ptr %9, i32 0, i32 1
  call void @llvm.memcpy.p0.p0.i64(ptr align 4 %24, ptr align 4 %23, i64 4, i1 false), !tbaa.struct !104
  %25 = load i32, ptr %5, align 4, !tbaa !83
  %26 = call i32 @setsockopt(i32 noundef %25, i32 noundef 0, i32 noundef 35, ptr noundef %9, i32 noundef 8) #21
  store i32 %26, ptr %8, align 4, !tbaa !83
  call void @llvm.lifetime.end.p0(i64 8, ptr %9) #21
  br label %57

27:                                               ; preds = %3
  %28 = load ptr, ptr %7, align 8, !tbaa !94
  %29 = call noundef i32 @_ZNK3zmq9ip_addr_t6familyEv(ptr noundef nonnull align 4 dereferenceable(28) %28)
  %30 = icmp eq i32 %29, 10
  br i1 %30, label %31, label %56

31:                                               ; preds = %27
  call void @llvm.lifetime.start.p0(i64 20, ptr %10) #21
  call void @llvm.lifetime.start.p0(i64 4, ptr %11) #21
  %32 = load ptr, ptr %6, align 8, !tbaa !91
  %33 = call noundef i32 @_ZNK3zmq13udp_address_t7bind_ifEv(ptr noundef nonnull align 8 dereferenceable(104) %32)
  store i32 %33, ptr %11, align 4, !tbaa !83
  br label %34

34:                                               ; preds = %31
  %35 = load i32, ptr %11, align 4, !tbaa !83
  %36 = icmp sge i32 %35, -1
  %37 = xor i1 %36, true
  %38 = zext i1 %37 to i64
  %39 = call i64 @llvm.expect.i64(i64 %38, i64 0)
  %40 = icmp ne i64 %39, 0
  br i1 %40, label %41, label %46

41:                                               ; preds = %34
  %42 = load ptr, ptr @stderr, align 8, !tbaa !81
  %43 = call i32 (ptr, ptr, ...) @fprintf(ptr noundef %42, ptr noundef @.str, ptr noundef @.str.8, ptr noundef @.str.2, i32 noundef 304) #21
  %44 = load ptr, ptr @stderr, align 8, !tbaa !81
  %45 = call i32 @fflush(ptr noundef %44)
  call void @_ZN3zmq9zmq_abortEPKc(ptr noundef @.str.8)
  br label %46

46:                                               ; preds = %41, %34
  br label %47

47:                                               ; preds = %46
  br label %48

48:                                               ; preds = %47
  %49 = load ptr, ptr %7, align 8, !tbaa !94
  %50 = getelementptr inbounds nuw %struct.sockaddr_in6, ptr %49, i32 0, i32 3
  %51 = getelementptr inbounds nuw %struct.ipv6_mreq, ptr %10, i32 0, i32 0
  call void @llvm.memcpy.p0.p0.i64(ptr align 4 %51, ptr align 4 %50, i64 16, i1 false), !tbaa.struct !106
  %52 = load i32, ptr %11, align 4, !tbaa !83
  %53 = getelementptr inbounds nuw %struct.ipv6_mreq, ptr %10, i32 0, i32 1
  store i32 %52, ptr %53, align 4, !tbaa !107
  %54 = load i32, ptr %5, align 4, !tbaa !83
  %55 = call i32 @setsockopt(i32 noundef %54, i32 noundef 41, i32 noundef 20, ptr noundef %10, i32 noundef 20) #21
  store i32 %55, ptr %8, align 4, !tbaa !83
  call void @llvm.lifetime.end.p0(i64 4, ptr %11) #21
  call void @llvm.lifetime.end.p0(i64 20, ptr %10) #21
  br label %56

56:                                               ; preds = %48, %27
  br label %57

57:                                               ; preds = %56, %17
  %58 = load i32, ptr %5, align 4, !tbaa !83
  %59 = load i32, ptr %8, align 4, !tbaa !83
  call void @_ZN3zmq29assert_success_or_recoverableEii(i32 noundef %58, i32 noundef %59)
  %60 = load i32, ptr %8, align 4, !tbaa !83
  call void @llvm.lifetime.end.p0(i64 4, ptr %8) #21
  call void @llvm.lifetime.end.p0(i64 8, ptr %7) #21
  ret i32 %60
}