; Function Attrs: mustprogress uwtable
define noundef i32 @_ZN3zmq12udp_engine_t14add_membershipEiPKNS_13udp_address_tE(ptr nonnull readnone align 8 captures(none) %0, i32 noundef %1, ptr noundef nonnull %2) local_unnamed_addr #0 align 2 {
  %4 = alloca %struct.ip_mreq, align 4
  %5 = alloca %struct.ipv6_mreq, align 4
  %6 = tail call noundef ptr @_ZNK3zmq13udp_address_t11target_addrEv(ptr noundef nonnull align 8 dereferenceable(104) %2)
  %7 = tail call noundef i32 @_ZNK3zmq9ip_addr_t6familyEv(ptr noundef nonnull align 4 dereferenceable(28) %6)
  %8 = icmp eq i32 %7, 2
  br i1 %8, label %9, label %17

9:                                                ; preds = %3
  call void @llvm.lifetime.start.p0(i64 8, ptr nonnull %4) #23
  %10 = getelementptr inbounds nuw i8, ptr %6, i64 4
  %11 = load i32, ptr %10, align 4, !tbaa !76
  store i32 %11, ptr %4, align 4, !tbaa !76
  %12 = tail call noundef ptr @_ZNK3zmq13udp_address_t9bind_addrEv(ptr noundef nonnull align 8 dereferenceable(104) %2)
  %13 = getelementptr inbounds nuw i8, ptr %12, i64 4
  %14 = getelementptr inbounds nuw i8, ptr %4, i64 4
  %15 = load i32, ptr %13, align 4, !tbaa !76
  store i32 %15, ptr %14, align 4, !tbaa !76
  %16 = call i32 @setsockopt(i32 noundef %1, i32 noundef 0, i32 noundef 35, ptr noundef nonnull %4, i32 noundef 8) #23
  call void @llvm.lifetime.end.p0(i64 8, ptr nonnull %4) #23
  br label %32

17:                                               ; preds = %3
  %18 = tail call noundef i32 @_ZNK3zmq9ip_addr_t6familyEv(ptr noundef nonnull align 4 dereferenceable(28) %6)
  %19 = icmp eq i32 %18, 10
  br i1 %19, label %20, label %32

20:                                               ; preds = %17
  call void @llvm.lifetime.start.p0(i64 20, ptr nonnull %5) #23
  %21 = tail call noundef i32 @_ZNK3zmq13udp_address_t7bind_ifEv(ptr noundef nonnull align 8 dereferenceable(104) %2)
  %22 = icmp slt i32 %21, -1
  br i1 %22, label %23, label %28, !prof !72

23:                                               ; preds = %20
  %24 = load ptr, ptr @stderr, align 8, !tbaa !105
  %25 = tail call i32 (ptr, ptr, ...) @fprintf(ptr noundef %24, ptr noundef nonnull @.str, ptr noundef nonnull @.str.8, ptr noundef nonnull @.str.2, i32 noundef 304) #27
  %26 = load ptr, ptr @stderr, align 8, !tbaa !105
  %27 = tail call i32 @fflush(ptr noundef %26)
  tail call void @_ZN3zmq9zmq_abortEPKc(ptr noundef nonnull @.str.8)
  br label %28

28:                                               ; preds = %23, %20
  %29 = getelementptr inbounds nuw i8, ptr %6, i64 8
  call void @llvm.memcpy.p0.p0.i64(ptr noundef nonnull align 4 dereferenceable(16) %5, ptr noundef nonnull align 4 dereferenceable(16) %29, i64 16, i1 false), !tbaa.struct !117
  %30 = getelementptr inbounds nuw i8, ptr %5, i64 16
  store i32 %21, ptr %30, align 4, !tbaa !118
  %31 = call i32 @setsockopt(i32 noundef %1, i32 noundef 41, i32 noundef 20, ptr noundef nonnull %5, i32 noundef 20) #23
  call void @llvm.lifetime.end.p0(i64 20, ptr nonnull %5) #23
  br label %32

32:                                               ; preds = %17, %28, %9
  %.0 = phi i32 [ %16, %9 ], [ %31, %28 ], [ 0, %17 ]
  call void @_ZN3zmq29assert_success_or_recoverableEii(i32 noundef %1, i32 noundef %.0)
  ret i32 %.0
}